; Function Attrs: nounwind uwtable
define internal fastcc ptr @ObtainPhysicalAudioDevice(i32 noundef %0) unnamed_addr #0 {
  %2 = alloca ptr, align 8
  call void @llvm.lifetime.start.p0(i64 8, ptr nonnull %2) #14
  store ptr null, ptr %2, align 8
  %3 = and i32 %0, 2
  %.not = icmp eq i32 %3, 0
  br i1 %.not, label %4, label %6

4:                                                ; preds = %1
  %5 = call fastcc ptr @ObtainLogicalAudioDevice(i32 noundef %0, ptr noundef %2)
  br label %23

6:                                                ; preds = %1
  %7 = load ptr, ptr @current_audio, align 8
  %.not4 = icmp eq ptr %7, null
  br i1 %.not4, label %8, label %10

8:                                                ; preds = %6
  %9 = tail call zeroext i1 (ptr, ...) @SDL_SetError_REAL(ptr noundef nonnull @.str.10) #14
  br label %23

10:                                               ; preds = %6
  %11 = load ptr, ptr getelementptr inbounds nuw (i8, ptr @current_audio, i64 136), align 8
  tail call void @SDL_LockRWLockForReading_REAL(ptr noundef %11) #14
  %12 = load ptr, ptr getelementptr inbounds nuw (i8, ptr @current_audio, i64 144), align 8
  %13 = zext i32 %0 to i64
  %14 = inttoptr i64 %13 to ptr
  %15 = call zeroext i1 @SDL_FindInHashTable(ptr noundef %12, ptr noundef %14, ptr noundef nonnull %2) #14
  %16 = load ptr, ptr getelementptr inbounds nuw (i8, ptr @current_audio, i64 136), align 8
  call void @SDL_UnlockRWLock_REAL(ptr noundef %16) #14
  %17 = load ptr, ptr %2, align 8
  %.not5 = icmp eq ptr %17, null
  br i1 %.not5, label %18, label %ObtainPhysicalAudioDeviceObj.exit

18:                                               ; preds = %10
  %19 = call zeroext i1 (ptr, ...) @SDL_SetError_REAL(ptr noundef nonnull @.str.12) #14
  br label %23

ObtainPhysicalAudioDeviceObj.exit:                ; preds = %10
  %20 = getelementptr inbounds nuw i8, ptr %17, i64 16
  %21 = call i32 @SDL_AddAtomicInt_REAL(ptr noundef nonnull %20, i32 noundef 1) #14
  %22 = load ptr, ptr %17, align 8
  call void @SDL_LockMutex_REAL(ptr noundef %22) #14
  br label %23

23:                                               ; preds = %8, %ObtainPhysicalAudioDeviceObj.exit, %18, %4
  %24 = load ptr, ptr %2, align 8
  call void @llvm.lifetime.end.p0(i64 8, ptr nonnull %2) #14
  ret ptr %24
}